target datalayout = "e-m:e-p270:32:32-p271:32:32-p272:64:64-i64:64-i128:128-f80:128-n8:16:32:64-S128"
target triple = "x86_64-pc-linux-gnu"

%struct.vorbis_enc_context = type { i32, i32, [2 x i32], [2 x ptr], [2 x ptr], [2 x ptr], i32, ptr, ptr, ptr, ptr, ptr, float, %struct.AudioFrameQueue, %struct.FFBufQueue, i32, ptr, i32, ptr, i32, ptr, i32, ptr, i32, ptr, i64, ptr }
%struct.AudioFrameQueue = type { ptr, i32, i32, ptr, i32, i32 }
%struct.FFBufQueue = type { [64 x ptr], i16, i16 }
%struct.vorbis_enc_residue = type { i32, i32, i32, i32, i32, i32, ptr, ptr }
%struct.vorbis_enc_codebook = type { i32, ptr, ptr, i32, float, float, i32, i32, ptr, ptr, ptr }

@.str.5 = private unnamed_addr constant [30 x i8] c"Assertion %s failed at %s:%d\0A\00", align 1
@.str.6 = private unnamed_addr constant [14 x i8] c"rc->type == 2\00", align 1
@.str.7 = private unnamed_addr constant [23 x i8] c"libavcodec/vorbisenc.c\00", align 1
@.str.8 = private unnamed_addr constant [21 x i8] c"cb->ndimensions >= 2\00", align 1
@__PRETTY_FUNCTION__.ready_residue = private unnamed_addr constant [62 x i8] c"int ready_residue(vorbis_enc_residue *, vorbis_enc_context *)\00", align 1
@.str.9 = private unnamed_addr constant [11 x i8] c"cb->lookup\00", align 1

; Function Attrs: nounwind uwtable
define internal i32 @ready_residue(ptr noundef %0, ptr noundef %1) #1 {
  %3 = alloca i32, align 4
  %4 = alloca ptr, align 8
  %5 = alloca ptr, align 8
  %6 = alloca i32, align 4
  %7 = alloca i32, align 4
  %8 = alloca i32, align 4
  %9 = alloca ptr, align 8
  %10 = alloca float, align 4
  store ptr %0, ptr %4, align 8, !tbaa !154
  store ptr %1, ptr %5, align 8, !tbaa !29
  call void @llvm.lifetime.start.p0(i64 4, ptr %6) #12
  br label %11

11:                                               ; preds = %2
  %12 = load ptr, ptr %4, align 8, !tbaa !154
  %13 = getelementptr inbounds nuw %struct.vorbis_enc_residue, ptr %12, i32 0, i32 0
  %14 = load i32, ptr %13, align 8, !tbaa !155
  %15 = icmp eq i32 %14, 2
  br i1 %15, label %17, label %16

16:                                               ; preds = %11
  call void (ptr, i32, ptr, ...) @av_log(ptr noundef null, i32 noundef 0, ptr noundef @.str.5, ptr noundef @.str.6, ptr noundef @.str.7, i32 noundef 217)
  call void @abort() #15
  unreachable

17:                                               ; preds = %11
  br label %18

18:                                               ; preds = %17
  br label %19

19:                                               ; preds = %18
  %20 = load ptr, ptr %4, align 8, !tbaa !154
  %21 = getelementptr inbounds nuw %struct.vorbis_enc_residue, ptr %20, i32 0, i32 4
  %22 = load i32, ptr %21, align 8, !tbaa !160
  %23 = sext i32 %22 to i64
  %24 = call noalias ptr @av_calloc(i64 noundef %23, i64 noundef 8)
  %25 = load ptr, ptr %4, align 8, !tbaa !154
  %26 = getelementptr inbounds nuw %struct.vorbis_enc_residue, ptr %25, i32 0, i32 7
  store ptr %24, ptr %26, align 8, !tbaa !188
  %27 = load ptr, ptr %4, align 8, !tbaa !154
  %28 = getelementptr inbounds nuw %struct.vorbis_enc_residue, ptr %27, i32 0, i32 7
  %29 = load ptr, ptr %28, align 8, !tbaa !188
  %30 = icmp ne ptr %29, null
  br i1 %30, label %32, label %31

31:                                               ; preds = %19
  store i32 -12, ptr %3, align 4
  store i32 1, ptr %7, align 4
  br label %230

32:                                               ; preds = %19
  store i32 0, ptr %6, align 4, !tbaa !32
  br label %33

33:                                               ; preds = %193, %32
  %34 = load i32, ptr %6, align 4, !tbaa !32
  %35 = load ptr, ptr %4, align 8, !tbaa !154
  %36 = getelementptr inbounds nuw %struct.vorbis_enc_residue, ptr %35, i32 0, i32 4
  %37 = load i32, ptr %36, align 8, !tbaa !160
  %38 = icmp slt i32 %34, %37
  br i1 %38, label %39, label %196

39:                                               ; preds = %33
  call void @llvm.lifetime.start.p0(i64 4, ptr %8) #12
  call void @llvm.lifetime.start.p0(i64 8, ptr %9) #12
  store i32 0, ptr %8, align 4, !tbaa !32
  br label %40

40:                                               ; preds = %58, %39
  %41 = load i32, ptr %8, align 4, !tbaa !32
  %42 = icmp slt i32 %41, 8
  br i1 %42, label %43, label %61

43:                                               ; preds = %40
  %44 = load ptr, ptr %4, align 8, !tbaa !154
  %45 = getelementptr inbounds nuw %struct.vorbis_enc_residue, ptr %44, i32 0, i32 6
  %46 = load ptr, ptr %45, align 8, !tbaa !162
  %47 = load i32, ptr %6, align 4, !tbaa !32
  %48 = sext i32 %47 to i64
  %49 = getelementptr inbounds [8 x i8], ptr %46, i64 %48
  %50 = load i32, ptr %8, align 4, !tbaa !32
  %51 = sext i32 %50 to i64
  %52 = getelementptr inbounds [8 x i8], ptr %49, i64 0, i64 %51
  %53 = load i8, ptr %52, align 1, !tbaa !93
  %54 = sext i8 %53 to i32
  %55 = icmp ne i32 %54, -1
  br i1 %55, label %56, label %57

56:                                               ; preds = %43
  br label %61

57:                                               ; preds = %43
  br label %58

58:                                               ; preds = %57
  %59 = load i32, ptr %8, align 4, !tbaa !32
  %60 = add nsw i32 %59, 1
  store i32 %60, ptr %8, align 4, !tbaa !32
  br label %40, !llvm.loop !189

61:                                               ; preds = %56, %40
  %62 = load i32, ptr %8, align 4, !tbaa !32
  %63 = icmp eq i32 %62, 8
  br i1 %63, label %64, label %65

64:                                               ; preds = %61
  store i32 6, ptr %7, align 4
  br label %190

65:                                               ; preds = %61
  %66 = load ptr, ptr %5, align 8, !tbaa !29
  %67 = getelementptr inbounds nuw %struct.vorbis_enc_context, ptr %66, i32 0, i32 16
  %68 = load ptr, ptr %67, align 8, !tbaa !94
  %69 = load ptr, ptr %4, align 8, !tbaa !154
  %70 = getelementptr inbounds nuw %struct.vorbis_enc_residue, ptr %69, i32 0, i32 6
  %71 = load ptr, ptr %70, align 8, !tbaa !162
  %72 = load i32, ptr %6, align 4, !tbaa !32
  %73 = sext i32 %72 to i64
  %74 = getelementptr inbounds [8 x i8], ptr %71, i64 %73
  %75 = load i32, ptr %8, align 4, !tbaa !32
  %76 = sext i32 %75 to i64
  %77 = getelementptr inbounds [8 x i8], ptr %74, i64 0, i64 %76
  %78 = load i8, ptr %77, align 1, !tbaa !93
  %79 = sext i8 %78 to i64
  %80 = getelementptr inbounds %struct.vorbis_enc_codebook, ptr %68, i64 %79
  store ptr %80, ptr %9, align 8, !tbaa !111
  %81 = load ptr, ptr %9, align 8, !tbaa !111
  %82 = getelementptr inbounds nuw %struct.vorbis_enc_codebook, ptr %81, i32 0, i32 3
  %83 = load i32, ptr %82, align 8, !tbaa !114
  %84 = icmp sge i32 %83, 2
  br i1 %84, label %85, label %86

85:                                               ; preds = %65
  br label %88

86:                                               ; preds = %65
  call void @__assert_fail(ptr noundef @.str.8, ptr noundef @.str.7, i32 noundef 230, ptr noundef @__PRETTY_FUNCTION__.ready_residue) #15
  unreachable

87:                                               ; No predecessors!
  br label %88

88:                                               ; preds = %87, %85
  %89 = load ptr, ptr %9, align 8, !tbaa !111
  %90 = getelementptr inbounds nuw %struct.vorbis_enc_codebook, ptr %89, i32 0, i32 7
  %91 = load i32, ptr %90, align 8, !tbaa !123
  %92 = icmp ne i32 %91, 0
  br i1 %92, label %93, label %94

93:                                               ; preds = %88
  br label %96

94:                                               ; preds = %88
  call void @__assert_fail(ptr noundef @.str.9, ptr noundef @.str.7, i32 noundef 231, ptr noundef @__PRETTY_FUNCTION__.ready_residue) #15
  unreachable

95:                                               ; No predecessors!
  br label %96

96:                                               ; preds = %95, %93
  store i32 0, ptr %8, align 4, !tbaa !32
  br label %97

97:                                               ; preds = %186, %96
  %98 = load i32, ptr %8, align 4, !tbaa !32
  %99 = load ptr, ptr %9, align 8, !tbaa !111
  %100 = getelementptr inbounds nuw %struct.vorbis_enc_codebook, ptr %99, i32 0, i32 0
  %101 = load i32, ptr %100, align 8, !tbaa !117
  %102 = icmp slt i32 %98, %101
  br i1 %102, label %103, label %189

103:                                              ; preds = %97
  call void @llvm.lifetime.start.p0(i64 4, ptr %10) #12
  %104 = load ptr, ptr %9, align 8, !tbaa !111
  %105 = getelementptr inbounds nuw %struct.vorbis_enc_codebook, ptr %104, i32 0, i32 1
  %106 = load ptr, ptr %105, align 8, !tbaa !125
  %107 = load i32, ptr %8, align 4, !tbaa !32
  %108 = sext i32 %107 to i64
  %109 = getelementptr inbounds i8, ptr %106, i64 %108
  %110 = load i8, ptr %109, align 1, !tbaa !93
  %111 = icmp ne i8 %110, 0
  br i1 %111, label %113, label %112

112:                                              ; preds = %103
  store i32 12, ptr %7, align 4
  br label %183

113:                                              ; preds = %103
  %114 = load ptr, ptr %9, align 8, !tbaa !111
  %115 = getelementptr inbounds nuw %struct.vorbis_enc_codebook, ptr %114, i32 0, i32 9
  %116 = load ptr, ptr %115, align 8, !tbaa !184
  %117 = load i32, ptr %8, align 4, !tbaa !32
  %118 = load ptr, ptr %9, align 8, !tbaa !111
  %119 = getelementptr inbounds nuw %struct.vorbis_enc_codebook, ptr %118, i32 0, i32 3
  %120 = load i32, ptr %119, align 8, !tbaa !114
  %121 = mul nsw i32 %117, %120
  %122 = sext i32 %121 to i64
  %123 = getelementptr inbounds float, ptr %116, i64 %122
  %124 = load float, ptr %123, align 4, !tbaa !81
  %125 = fpext nsz float %124 to double
  %126 = call nsz double @llvm.fabs.f64(double %125)
  %127 = fptrunc nsz double %126 to float
  store float %127, ptr %10, align 4, !tbaa !81
  %128 = load float, ptr %10, align 4, !tbaa !81
  %129 = load ptr, ptr %4, align 8, !tbaa !154
  %130 = getelementptr inbounds nuw %struct.vorbis_enc_residue, ptr %129, i32 0, i32 7
  %131 = load ptr, ptr %130, align 8, !tbaa !188
  %132 = load i32, ptr %6, align 4, !tbaa !32
  %133 = sext i32 %132 to i64
  %134 = getelementptr inbounds [2 x float], ptr %131, i64 %133
  %135 = getelementptr inbounds [2 x float], ptr %134, i64 0, i64 0
  %136 = load float, ptr %135, align 4, !tbaa !81
  %137 = fcmp nsz ogt float %128, %136
  br i1 %137, label %138, label %147

138:                                              ; preds = %113
  %139 = load float, ptr %10, align 4, !tbaa !81
  %140 = load ptr, ptr %4, align 8, !tbaa !154
  %141 = getelementptr inbounds nuw %struct.vorbis_enc_residue, ptr %140, i32 0, i32 7
  %142 = load ptr, ptr %141, align 8, !tbaa !188
  %143 = load i32, ptr %6, align 4, !tbaa !32
  %144 = sext i32 %143 to i64
  %145 = getelementptr inbounds [2 x float], ptr %142, i64 %144
  %146 = getelementptr inbounds [2 x float], ptr %145, i64 0, i64 0
  store float %139, ptr %146, align 4, !tbaa !81
  br label %147

147:                                              ; preds = %138, %113
  %148 = load ptr, ptr %9, align 8, !tbaa !111
  %149 = getelementptr inbounds nuw %struct.vorbis_enc_codebook, ptr %148, i32 0, i32 9
  %150 = load ptr, ptr %149, align 8, !tbaa !184
  %151 = load i32, ptr %8, align 4, !tbaa !32
  %152 = load ptr, ptr %9, align 8, !tbaa !111
  %153 = getelementptr inbounds nuw %struct.vorbis_enc_codebook, ptr %152, i32 0, i32 3
  %154 = load i32, ptr %153, align 8, !tbaa !114
  %155 = mul nsw i32 %151, %154
  %156 = add nsw i32 %155, 1
  %157 = sext i32 %156 to i64
  %158 = getelementptr inbounds float, ptr %150, i64 %157
  %159 = load float, ptr %158, align 4, !tbaa !81
  %160 = fpext nsz float %159 to double
  %161 = call nsz double @llvm.fabs.f64(double %160)
  %162 = fptrunc nsz double %161 to float
  store float %162, ptr %10, align 4, !tbaa !81
  %163 = load float, ptr %10, align 4, !tbaa !81
  %164 = load ptr, ptr %4, align 8, !tbaa !154
  %165 = getelementptr inbounds nuw %struct.vorbis_enc_residue, ptr %164, i32 0, i32 7
  %166 = load ptr, ptr %165, align 8, !tbaa !188
  %167 = load i32, ptr %6, align 4, !tbaa !32
  %168 = sext i32 %167 to i64
  %169 = getelementptr inbounds [2 x float], ptr %166, i64 %168
  %170 = getelementptr inbounds [2 x float], ptr %169, i64 0, i64 1
  %171 = load float, ptr %170, align 4, !tbaa !81
  %172 = fcmp nsz ogt float %163, %171
  br i1 %172, label %173, label %182

173:                                              ; preds = %147
  %174 = load float, ptr %10, align 4, !tbaa !81
  %175 = load ptr, ptr %4, align 8, !tbaa !154
  %176 = getelementptr inbounds nuw %struct.vorbis_enc_residue, ptr %175, i32 0, i32 7
  %177 = load ptr, ptr %176, align 8, !tbaa !188
  %178 = load i32, ptr %6, align 4, !tbaa !32
  %179 = sext i32 %178 to i64
  %180 = getelementptr inbounds [2 x float], ptr %177, i64 %179
  %181 = getelementptr inbounds [2 x float], ptr %180, i64 0, i64 1
  store float %174, ptr %181, align 4, !tbaa !81
  br label %182

182:                                              ; preds = %173, %147
  store i32 0, ptr %7, align 4
  br label %183

183:                                              ; preds = %182, %112
  call void @llvm.lifetime.end.p0(i64 4, ptr %10) #12
  %184 = load i32, ptr %7, align 4
  switch i32 %184, label %232 [
    i32 0, label %185
    i32 12, label %186
  ]

185:                                              ; preds = %183
  br label %186

186:                                              ; preds = %185, %183
  %187 = load i32, ptr %8, align 4, !tbaa !32
  %188 = add nsw i32 %187, 1
  store i32 %188, ptr %8, align 4, !tbaa !32
  br label %97, !llvm.loop !190

189:                                              ; preds = %97
  store i32 0, ptr %7, align 4
  br label %190

190:                                              ; preds = %189, %64
  call void @llvm.lifetime.end.p0(i64 8, ptr %9) #12
  call void @llvm.lifetime.end.p0(i64 4, ptr %8) #12
  %191 = load i32, ptr %7, align 4
  switch i32 %191, label %232 [
    i32 0, label %192
    i32 6, label %193
  ]

192:                                              ; preds = %190
  br label %193

193:                                              ; preds = %192, %190
  %194 = load i32, ptr %6, align 4, !tbaa !32
  %195 = add nsw i32 %194, 1
  store i32 %195, ptr %6, align 4, !tbaa !32
  br label %33, !llvm.loop !191

196:                                              ; preds = %33
  store i32 0, ptr %6, align 4, !tbaa !32
  br label %197

197:                                              ; preds = %226, %196
  %198 = load i32, ptr %6, align 4, !tbaa !32
  %199 = load ptr, ptr %4, align 8, !tbaa !154
  %200 = getelementptr inbounds nuw %struct.vorbis_enc_residue, ptr %199, i32 0, i32 4
  %201 = load i32, ptr %200, align 8, !tbaa !160
  %202 = icmp slt i32 %198, %201
  br i1 %202, label %203, label %229

203:                                              ; preds = %197
  %204 = load ptr, ptr %4, align 8, !tbaa !154
  %205 = getelementptr inbounds nuw %struct.vorbis_enc_residue, ptr %204, i32 0, i32 7
  %206 = load ptr, ptr %205, align 8, !tbaa !188
  %207 = load i32, ptr %6, align 4, !tbaa !32
  %208 = sext i32 %207 to i64
  %209 = getelementptr inbounds [2 x float], ptr %206, i64 %208
  %210 = getelementptr inbounds [2 x float], ptr %209, i64 0, i64 0
  %211 = load float, ptr %210, align 4, !tbaa !81
  %212 = fpext nsz float %211 to double
  %213 = fadd nsz double %212, 8.000000e-01
  %214 = fptrunc nsz double %213 to float
  store float %214, ptr %210, align 4, !tbaa !81
  %215 = load ptr, ptr %4, align 8, !tbaa !154
  %216 = getelementptr inbounds nuw %struct.vorbis_enc_residue, ptr %215, i32 0, i32 7
  %217 = load ptr, ptr %216, align 8, !tbaa !188
  %218 = load i32, ptr %6, align 4, !tbaa !32
  %219 = sext i32 %218 to i64
  %220 = getelementptr inbounds [2 x float], ptr %217, i64 %219
  %221 = getelementptr inbounds [2 x float], ptr %220, i64 0, i64 1
  %222 = load float, ptr %221, align 4, !tbaa !81
  %223 = fpext nsz float %222 to double
  %224 = fadd nsz double %223, 8.000000e-01
  %225 = fptrunc nsz double %224 to float
  store float %225, ptr %221, align 4, !tbaa !81
  br label %226

226:                                              ; preds = %203
  %227 = load i32, ptr %6, align 4, !tbaa !32
  %228 = add nsw i32 %227, 1
  store i32 %228, ptr %6, align 4, !tbaa !32
  br label %197, !llvm.loop !192

229:                                              ; preds = %197
  store i32 0, ptr %3, align 4
  store i32 1, ptr %7, align 4
  br label %230

230:                                              ; preds = %229, %31
  call void @llvm.lifetime.end.p0(i64 4, ptr %6) #12
  %231 = load i32, ptr %3, align 4
  ret i32 %231

232:                                              ; preds = %190, %183
  unreachable
}