; Function Attrs: nounwind uwtable
define internal fastcc range(i32 -12, 1) i32 @ready_residue(ptr noundef nonnull captures(none) %0, ptr noundef readonly captures(none) %1) unnamed_addr #1 {
  %3 = load i32, ptr %0, align 8, !tbaa !103
  %4 = icmp eq i32 %3, 2
  br i1 %4, label %6, label %5

5:                                                ; preds = %2
  tail call void (ptr, i32, ptr, ...) @av_log(ptr noundef null, i32 noundef 0, ptr noundef nonnull @.str.5, ptr noundef nonnull @.str.6, ptr noundef nonnull @.str.7, i32 noundef 217) #12
  tail call void @abort() #14
  unreachable

6:                                                ; preds = %2
  %7 = getelementptr inbounds nuw i8, ptr %0, i64 16
  %8 = load i32, ptr %7, align 8, !tbaa !108
  %9 = sext i32 %8 to i64
  %10 = tail call noalias ptr @av_calloc(i64 noundef %9, i64 noundef 8) #12
  %11 = getelementptr inbounds nuw i8, ptr %0, i64 32
  store ptr %10, ptr %11, align 8, !tbaa !221
  %.not = icmp eq ptr %10, null
  br i1 %.not, label %.loopexit, label %.preheader60

.preheader60:                                     ; preds = %6
  %12 = load i32, ptr %7, align 8, !tbaa !108
  %13 = icmp sgt i32 %12, 0
  br i1 %13, label %.preheader59.lr.ph, label %.loopexit

.preheader59.lr.ph:                               ; preds = %.preheader60
  %14 = getelementptr inbounds nuw i8, ptr %0, i64 24
  %15 = load ptr, ptr %14, align 8, !tbaa !110
  %16 = getelementptr inbounds nuw i8, ptr %1, i64 680
  %wide.trip.count79 = zext nneg i32 %12 to i64
  br label %.preheader59

.preheader59:                                     ; preds = %.preheader59.lr.ph, %.loopexit58
  %indvars.iv76 = phi i64 [ 0, %.preheader59.lr.ph ], [ %indvars.iv.next77, %.loopexit58 ]
  br label %17

.lr.ph69.preheader:                               ; preds = %.loopexit58
  %wide.trip.count84 = zext nneg i32 %12 to i64
  br label %.lr.ph69

17:                                               ; preds = %.preheader59, %20
  %indvars.iv = phi i64 [ 0, %.preheader59 ], [ %indvars.iv.next, %20 ]
  %18 = getelementptr inbounds nuw [8 x i8], ptr %15, i64 %indvars.iv76, i64 %indvars.iv
  %19 = load i8, ptr %18, align 1, !tbaa !64
  %.not54 = icmp eq i8 %19, -1
  br i1 %.not54, label %20, label %.thread

20:                                               ; preds = %17
  %indvars.iv.next = add nuw nsw i64 %indvars.iv, 1
  %exitcond.not = icmp eq i64 %indvars.iv.next, 8
  br i1 %exitcond.not, label %.loopexit58, label %17, !llvm.loop !243

.thread:                                          ; preds = %17
  %21 = load ptr, ptr %16, align 8, !tbaa !46
  %22 = and i64 %indvars.iv, 4294967295
  %23 = getelementptr inbounds nuw [8 x i8], ptr %15, i64 %indvars.iv76, i64 %22
  %24 = load i8, ptr %23, align 1, !tbaa !64
  %25 = sext i8 %24 to i64
  %26 = getelementptr inbounds %struct.vorbis_enc_codebook, ptr %21, i64 %25
  %27 = getelementptr inbounds nuw i8, ptr %26, i64 24
  %28 = load i32, ptr %27, align 8, !tbaa !49
  %29 = icmp sgt i32 %28, 1
  br i1 %29, label %31, label %30

30:                                               ; preds = %.thread
  tail call void @__assert_fail(ptr noundef nonnull @.str.8, ptr noundef nonnull @.str.7, i32 noundef 230, ptr noundef nonnull @__PRETTY_FUNCTION__.ready_residue) #14
  unreachable

31:                                               ; preds = %.thread
  %32 = getelementptr inbounds nuw i8, ptr %26, i64 40
  %33 = load i32, ptr %32, align 8, !tbaa !58
  %.not55 = icmp eq i32 %33, 0
  br i1 %.not55, label %42, label %.preheader57

.preheader57:                                     ; preds = %31
  %34 = load i32, ptr %26, align 8, !tbaa !52
  %35 = icmp sgt i32 %34, 0
  br i1 %35, label %.lr.ph, label %.loopexit58

.lr.ph:                                           ; preds = %.preheader57
  %36 = getelementptr inbounds nuw i8, ptr %26, i64 8
  %37 = load ptr, ptr %36, align 8, !tbaa !60
  %38 = getelementptr inbounds nuw i8, ptr %26, i64 56
  %39 = getelementptr inbounds nuw [2 x float], ptr %10, i64 %indvars.iv76
  %40 = getelementptr inbounds nuw [2 x float], ptr %10, i64 %indvars.iv76, i64 1
  %41 = zext nneg i32 %28 to i64
  %wide.trip.count = zext nneg i32 %34 to i64
  br label %43

42:                                               ; preds = %31
  tail call void @__assert_fail(ptr noundef nonnull @.str.9, ptr noundef nonnull @.str.7, i32 noundef 231, ptr noundef nonnull @__PRETTY_FUNCTION__.ready_residue) #14
  unreachable

43:                                               ; preds = %.lr.ph, %62
  %indvars.iv72 = phi i64 [ 0, %.lr.ph ], [ %indvars.iv.next73, %62 ]
  %44 = getelementptr inbounds nuw i8, ptr %37, i64 %indvars.iv72
  %45 = load i8, ptr %44, align 1, !tbaa !64
  %.not56 = icmp eq i8 %45, 0
  br i1 %.not56, label %62, label %46

46:                                               ; preds = %43
  %47 = load ptr, ptr %38, align 8, !tbaa !67
  %48 = mul nuw nsw i64 %indvars.iv72, %41
  %49 = getelementptr inbounds nuw float, ptr %47, i64 %48
  %50 = load float, ptr %49, align 4, !tbaa !69
  %51 = tail call nsz float @llvm.fabs.f32(float %50)
  %52 = load float, ptr %39, align 4, !tbaa !69
  %53 = fcmp nsz ogt float %51, %52
  br i1 %53, label %54, label %55

54:                                               ; preds = %46
  store float %51, ptr %39, align 4, !tbaa !69
  br label %55

55:                                               ; preds = %54, %46
  %56 = getelementptr i8, ptr %49, i64 4
  %57 = load float, ptr %56, align 4, !tbaa !69
  %58 = tail call nsz float @llvm.fabs.f32(float %57)
  %59 = load float, ptr %40, align 4, !tbaa !69
  %60 = fcmp nsz ogt float %58, %59
  br i1 %60, label %61, label %62

61:                                               ; preds = %55
  store float %58, ptr %40, align 4, !tbaa !69
  br label %62

62:                                               ; preds = %55, %61, %43
  %indvars.iv.next73 = add nuw nsw i64 %indvars.iv72, 1
  %exitcond75.not = icmp eq i64 %indvars.iv.next73, %wide.trip.count
  br i1 %exitcond75.not, label %.loopexit58, label %43, !llvm.loop !244

.loopexit58:                                      ; preds = %20, %62, %.preheader57
  %indvars.iv.next77 = add nuw nsw i64 %indvars.iv76, 1
  %exitcond80.not = icmp eq i64 %indvars.iv.next77, %wide.trip.count79
  br i1 %exitcond80.not, label %.lr.ph69.preheader, label %.preheader59, !llvm.loop !245

.lr.ph69:                                         ; preds = %.lr.ph69.preheader, %.lr.ph69
  %indvars.iv81 = phi i64 [ 0, %.lr.ph69.preheader ], [ %indvars.iv.next82, %.lr.ph69 ]
  %63 = getelementptr inbounds nuw [2 x float], ptr %10, i64 %indvars.iv81
  %64 = load float, ptr %63, align 4, !tbaa !69
  %65 = fpext nsz float %64 to double
  %66 = fadd nsz double %65, 8.000000e-01
  %67 = fptrunc nsz double %66 to float
  store float %67, ptr %63, align 4, !tbaa !69
  %68 = getelementptr inbounds nuw [2 x float], ptr %10, i64 %indvars.iv81, i64 1
  %69 = load float, ptr %68, align 4, !tbaa !69
  %70 = fpext nsz float %69 to double
  %71 = fadd nsz double %70, 8.000000e-01
  %72 = fptrunc nsz double %71 to float
  store float %72, ptr %68, align 4, !tbaa !69
  %indvars.iv.next82 = add nuw nsw i64 %indvars.iv81, 1
  %exitcond85.not = icmp eq i64 %indvars.iv.next82, %wide.trip.count84
  br i1 %exitcond85.not, label %.loopexit, label %.lr.ph69, !llvm.loop !246

.loopexit:                                        ; preds = %.lr.ph69, %.preheader60, %6
  %.0 = phi i32 [ -12, %6 ], [ 0, %.preheader60 ], [ 0, %.lr.ph69 ]
  ret i32 %.0
}